; Function Attrs: mustprogress uwtable
define hidden void @_ZN19OpenColorIO_v2_5dev10OpRcPtrVec8finalizeEv(ptr noundef nonnull align 8 dereferenceable(144) %0) local_unnamed_addr #3 align 2 {
  %2 = load ptr, ptr %0, align 8, !tbaa !3
  %3 = getelementptr inbounds nuw i8, ptr %0, i64 8
  %4 = load ptr, ptr %3, align 8, !tbaa !3
  %5 = icmp eq ptr %2, %4
  br i1 %5, label %7, label %6

6:                                                ; preds = %1
  tail call void @_ZNK19OpenColorIO_v2_5dev10OpRcPtrVec8validateEv(ptr noundef nonnull align 8 dereferenceable(144) %0)
  %.val = load ptr, ptr %0, align 8, !tbaa !3
  %.val1 = load ptr, ptr %3, align 8, !tbaa !3
  tail call fastcc void @_ZN19OpenColorIO_v2_5dev12_GLOBAL__N_111FinalizeOpsERNS_10OpRcPtrVecE(ptr %.val, ptr %.val1)
  br label %7

7:                                                ; preds = %1, %6
  ret void
}